; Function Attrs: nounwind uwtable
define internal fastcc void @dissect_fcfcs_gfn(ptr noundef %0, ptr noundef %1, i32 noundef range(i32 0, 2) %2) unnamed_addr #0 {
  %.not = icmp eq ptr %1, null
  br i1 %.not, label %6, label %.sink.split

.sink.split:                                      ; preds = %3
  %.not7 = icmp eq i32 %2, 0
  %hf_fcs_fabricname.val = load i32, ptr @hf_fcs_fabricname, align 4
  %hf_fcs_iename.val = load i32, ptr @hf_fcs_iename, align 4
  %4 = select i1 %.not7, i32 %hf_fcs_fabricname.val, i32 %hf_fcs_iename.val
  %5 = tail call ptr @proto_tree_add_item(ptr noundef nonnull %1, i32 noundef %4, ptr noundef %0, i32 noundef 16, i32 noundef 8, i32 noundef 0) #4
  br label %6

6:                                                ; preds = %.sink.split, %3
  ret void
}